; Function Attrs: mustprogress nofree norecurse nosync nounwind willreturn memory(readwrite, inaccessiblemem: none) uwtable
define internal void @_ZNK12SparseMatrixIfE21MultiplyAndAddAverageIfEEvPKT_PS2_i.omp_outlined.omp.reduction.reduction_func(ptr nocapture noundef readonly %0, ptr nocapture noundef readonly %1) #33 {
  %3 = load ptr, ptr %1, align 8
  %4 = load ptr, ptr %0, align 8
  %5 = getelementptr inbounds i8, ptr %1, i64 8
  %6 = load ptr, ptr %5, align 8
  %7 = getelementptr inbounds i8, ptr %0, i64 8
  %8 = load ptr, ptr %7, align 8
  %9 = load float, ptr %4, align 4
  %10 = load float, ptr %3, align 4
  %11 = fadd float %9, %10
  store float %11, ptr %4, align 4
  %12 = load i32, ptr %8, align 4
  %13 = load i32, ptr %6, align 4
  %14 = add nsw i32 %13, %12
  store i32 %14, ptr %8, align 4
  ret void
}